Certificate:
    Data:
        Version: 3 (0x2)
        Serial Number:
            57:ea:e1:e5:a9:0a:58:58:b0:cc:68:4c:d7:27:d6:06:02:f0:f7:75
        Signature Algorithm: sha256WithRSAEncryption
        Issuer: CN=localhost
        Validity
            Not Before: Sep 25 08:16:57 2024 GMT
            Not After : Oct 25 08:16:57 2024 GMT
        Subject: CN=localhost
        Subject Public Key Info:
            Public Key Algorithm: rsaEncryption
                Public-Key: (2048 bit)
                Modulus:
                    00:bc:a0:8a:09:0e:dd:3c:69:94:c6:98:dd:b1:6b:
                    23:12:d0:57:55:20:7b:49:04:a9:1b:59:4d:b4:7b:
                    44:96:4f:0d:47:85:68:54:1c:db:e2:cc:6a:10:e5:
                    8d:9b:5b:da:31:95:78:a6:b7:ad:e0:bb:35:38:fa:
                    77:c0:69:b9:ff:6e:62:2d:82:40:e9:4e:79:e3:69:
                    4a:11:f2:c7:9e:ee:cb:00:66:e2:f6:2f:a6:87:68:
                    ad:37:84:32:3d:38:34:fa:b3:81:ca:4c:79:17:6e:
                    e1:68:8e:d4:75:d4:46:00:32:b7:b3:23:b4:47:07:
                    50:86:f5:85:fd:7e:f7:af:30:a7:20:67:dc:a5:e1:
                    e6:0b:9d:ad:06:a9:2e:cb:d3:aa:69:85:f5:b7:ab:
                    19:89:78:c0:6d:03:19:17:86:39:5d:7f:23:a9:1d:
                    cb:b5:06:70:f4:a6:0c:36:65:79:62:d7:bb:90:6f:
                    f9:18:41:03:19:34:cf:ba:84:c9:f2:38:72:c5:17:
                    7a:f1:94:69:69:2b:f0:f0:e9:70:68:9e:d0:d7:37:
                    12:a6:a9:92:f8:8b:8b:98:93:c8:77:0e:c8:3f:86:
                    cd:40:cf:76:de:03:1a:97:86:71:b4:ed:b1:f9:8b:
                    57:50:ab:02:81:51:e4:aa:f9:6d:d9:da:23:1e:aa:
                    05:e3
                Exponent: 65537 (0x10001)
        X509v3 extensions:
            X509v3 Subject Key Identifier: 
                B4:0B:FA:EB:E7:8D:B2:CB:5E:BF:11:7F:E7:1F:D9:C0:CD:6E:BC:76
            X509v3 Authority Key Identifier: 
                B4:0B:FA:EB:E7:8D:B2:CB:5E:BF:11:7F:E7:1F:D9:C0:CD:6E:BC:76
            X509v3 Basic Constraints: critical
                CA:TRUE
    Signature Algorithm: sha256WithRSAEncryption
    Signature Value:
        4c:d5:ca:a9:a3:81:38:a4:c2:78:3f:47:09:33:05:ee:2b:58:
        b8:05:eb:85:9a:dd:d6:43:a4:cf:d3:d7:d1:d0:fa:2d:30:74:
        c0:ae:64:93:2f:eb:4d:6d:19:95:2f:db:4c:79:7d:10:c2:b5:
        66:f7:b5:6b:2a:58:32:50:98:55:5a:79:20:4f:51:8b:6a:37:
        4c:46:ec:97:31:af:0d:a3:c0:a1:57:67:77:6a:e9:dd:61:35:
        2c:8b:2d:e9:6e:92:b8:2e:08:d8:6b:18:ea:f7:93:16:88:33:
        d1:54:a9:08:ed:71:cc:37:b2:8d:6b:40:75:85:66:02:41:ff:
        7a:c1:d3:b6:0a:0e:75:a3:12:2a:a2:f7:e3:c5:e1:78:3b:01:
        8b:cb:af:46:e0:8e:3d:f8:cc:9c:71:16:46:05:ef:83:20:01:
        94:4b:20:94:d7:29:b0:b4:3b:ca:08:2a:77:b8:5e:10:0b:1a:
        0c:79:23:41:86:82:f5:04:ff:2e:fc:2b:41:a5:2c:66:ba:3b:
        65:93:9c:cc:ae:01:25:e3:11:79:02:08:0c:0f:7e:7f:f1:c1:
        62:3c:54:5b:ee:4f:23:40:47:12:68:ed:89:4c:66:b3:95:fc:
        ab:0e:b0:41:9c:11:e7:11:31:2f:41:a1:a6:1f:30:a0:67:40:
        b2:72:b3:16
-----BEGIN CERTIFICATE-----
MIIDCTCCAfGgAwIBAgIUV+rh5akKWFiwzGhM1yfWBgLw93UwDQYJKoZIhvcNAQEL
BQAwFDESMBAGA1UEAwwJbG9jYWxob3N0MB4XDTI0MDkyNTA4MTY1N1oXDTI0MTAy
NTA4MTY1N1owFDESMBAGA1UEAwwJbG9jYWxob3N0MIIBIjANBgkqhkiG9w0BAQEF
AAOCAQ8AMIIBCgKCAQEAvKCKCQ7dPGmUxpjdsWsjEtBXVSB7SQSpG1lNtHtElk8N
R4VoVBzb4sxqEOWNm1vaMZV4pret4Ls1OPp3wGm5/25iLYJA6U5542lKEfLHnu7L
AGbi9i+mh2itN4QyPTg0+rOBykx5F27haI7UddRGADK3syO0RwdQhvWF/X73rzCn
IGfcpeHmC52tBqkuy9OqaYX1t6sZiXjAbQMZF4Y5XX8jqR3LtQZw9KYMNmV5Yte7
kG/5GEEDGTTPuoTJ8jhyxRd68ZRpaSvw8OlwaJ7Q1zcSpqmS+IuLmJPIdw7IP4bN
QM923gMal4ZxtO2x+YtXUKsCgVHkqvlt2dojHqoF4wIDAQABo1MwUTAdBgNVHQ4E
FgQUtAv66+eNsstevxF/5x/ZwM1uvHYwHwYDVR0jBBgwFoAUtAv66+eNsstevxF/
5x/ZwM1uvHYwDwYDVR0TAQH/BAUwAwEB/zANBgkqhkiG9w0BAQsFAAOCAQEATNXK
qaOBOKTCeD9HCTMF7itYuAXrhZrd1kOkz9PX0dD6LTB0wK5kky/rTW0ZlS/bTHl9
EMK1Zve1aypYMlCYVVp5IE9Ri2o3TEbslzGvDaPAoVdnd2rp3WE1LIst6W6SuC4I
2GsY6veTFogz0VSpCO1xzDeyjWtAdYVmAkH/esHTtgoOdaMSKqL348XheDsBi8uv
RuCOPfjMnHEWRgXvgyABlEsglNcpsLQ7yggqd7heEAsaDHkjQYaC9QT/LvwrQaUs
Zro7ZZOczK4BJeMReQIIDA9+f/HBYjxUW+5PI0BHEmjtiUxms5X8qw6wQZwR5xEx
L0Ghph8woGdAsnKzFg==
-----END CERTIFICATE-----
